target datalayout = "e-m:e-p270:32:32-p271:32:32-p272:64:64-i64:64-i128:128-f80:128-n8:16:32:64-S128"
target triple = "x86_64-pc-linux-gnu"

%struct._object = type { %union.anon, ptr }
%union.anon = type { i64 }
%struct.PyDateTime_CAPI = type { ptr, ptr, ptr, ptr, ptr, ptr, ptr, ptr, ptr, ptr, ptr, ptr, ptr, ptr, ptr }

@_Py_NoneStruct = external global %struct._object, align 8
@PyDateTimeAPI = internal global ptr null, align 8
@.str.26 = private unnamed_addr constant [9 x i8] c"piiiiiii\00", align 1

; Function Attrs: nounwind uwtable
define internal ptr @get_datetime_fromdateandtime(ptr noundef %0, ptr noundef %1) #0 {
  %3 = alloca ptr, align 8
  %4 = alloca ptr, align 8
  %5 = alloca ptr, align 8
  %6 = alloca ptr, align 8
  %7 = alloca i32, align 4
  %8 = alloca i32, align 4
  %9 = alloca i32, align 4
  %10 = alloca i32, align 4
  %11 = alloca i32, align 4
  %12 = alloca i32, align 4
  %13 = alloca i32, align 4
  %14 = alloca i32, align 4
  %15 = alloca i32, align 4
  store ptr %0, ptr %4, align 8, !tbaa !3
  store ptr %1, ptr %5, align 8, !tbaa !3
  call void @llvm.lifetime.start.p0(i64 8, ptr %6) #6
  store ptr null, ptr %6, align 8, !tbaa !3
  call void @llvm.lifetime.start.p0(i64 4, ptr %7) #6
  call void @llvm.lifetime.start.p0(i64 4, ptr %8) #6
  call void @llvm.lifetime.start.p0(i64 4, ptr %9) #6
  call void @llvm.lifetime.start.p0(i64 4, ptr %10) #6
  call void @llvm.lifetime.start.p0(i64 4, ptr %11) #6
  call void @llvm.lifetime.start.p0(i64 4, ptr %12) #6
  call void @llvm.lifetime.start.p0(i64 4, ptr %13) #6
  call void @llvm.lifetime.start.p0(i64 4, ptr %14) #6
  %16 = load ptr, ptr %5, align 8, !tbaa !3
  %17 = call i32 (ptr, ptr, ...) @PyArg_ParseTuple(ptr noundef %16, ptr noundef @.str.26, ptr noundef %7, ptr noundef %8, ptr noundef %9, ptr noundef %10, ptr noundef %11, ptr noundef %12, ptr noundef %13, ptr noundef %14)
  %18 = icmp ne i32 %17, 0
  br i1 %18, label %20, label %19

19:                                               ; preds = %2
  store ptr null, ptr %3, align 8
  store i32 1, ptr %15, align 4
  br label %55

20:                                               ; preds = %2
  %21 = load i32, ptr %7, align 4, !tbaa !9
  %22 = icmp ne i32 %21, 0
  br i1 %22, label %23, label %38

23:                                               ; preds = %20
  %24 = load ptr, ptr @PyDateTimeAPI, align 8, !tbaa !24
  %25 = getelementptr inbounds nuw %struct.PyDateTime_CAPI, ptr %24, i32 0, i32 7
  %26 = load ptr, ptr %25, align 8, !tbaa !33
  %27 = load i32, ptr %8, align 4, !tbaa !9
  %28 = load i32, ptr %9, align 4, !tbaa !9
  %29 = load i32, ptr %10, align 4, !tbaa !9
  %30 = load i32, ptr %11, align 4, !tbaa !9
  %31 = load i32, ptr %12, align 4, !tbaa !9
  %32 = load i32, ptr %13, align 4, !tbaa !9
  %33 = load i32, ptr %14, align 4, !tbaa !9
  %34 = load ptr, ptr @PyDateTimeAPI, align 8, !tbaa !24
  %35 = getelementptr inbounds nuw %struct.PyDateTime_CAPI, ptr %34, i32 0, i32 1
  %36 = load ptr, ptr %35, align 8, !tbaa !27
  %37 = call ptr %26(i32 noundef %27, i32 noundef %28, i32 noundef %29, i32 noundef %30, i32 noundef %31, i32 noundef %32, i32 noundef %33, ptr noundef @_Py_NoneStruct, ptr noundef %36)
  store ptr %37, ptr %6, align 8, !tbaa !3
  br label %53

38:                                               ; preds = %20
  %39 = load ptr, ptr @PyDateTimeAPI, align 8, !tbaa !24
  %40 = getelementptr inbounds nuw %struct.PyDateTime_CAPI, ptr %39, i32 0, i32 7
  %41 = load ptr, ptr %40, align 8, !tbaa !33
  %42 = load i32, ptr %8, align 4, !tbaa !9
  %43 = load i32, ptr %9, align 4, !tbaa !9
  %44 = load i32, ptr %10, align 4, !tbaa !9
  %45 = load i32, ptr %11, align 4, !tbaa !9
  %46 = load i32, ptr %12, align 4, !tbaa !9
  %47 = load i32, ptr %13, align 4, !tbaa !9
  %48 = load i32, ptr %14, align 4, !tbaa !9
  %49 = load ptr, ptr @PyDateTimeAPI, align 8, !tbaa !24
  %50 = getelementptr inbounds nuw %struct.PyDateTime_CAPI, ptr %49, i32 0, i32 1
  %51 = load ptr, ptr %50, align 8, !tbaa !27
  %52 = call ptr %41(i32 noundef %42, i32 noundef %43, i32 noundef %44, i32 noundef %45, i32 noundef %46, i32 noundef %47, i32 noundef %48, ptr noundef @_Py_NoneStruct, ptr noundef %51)
  store ptr %52, ptr %6, align 8, !tbaa !3
  br label %53

53:                                               ; preds = %38, %23
  %54 = load ptr, ptr %6, align 8, !tbaa !3
  store ptr %54, ptr %3, align 8
  store i32 1, ptr %15, align 4
  br label %55

55:                                               ; preds = %53, %19
  call void @llvm.lifetime.end.p0(i64 4, ptr %14) #6
  call void @llvm.lifetime.end.p0(i64 4, ptr %13) #6
  call void @llvm.lifetime.end.p0(i64 4, ptr %12) #6
  call void @llvm.lifetime.end.p0(i64 4, ptr %11) #6
  call void @llvm.lifetime.end.p0(i64 4, ptr %10) #6
  call void @llvm.lifetime.end.p0(i64 4, ptr %9) #6
  call void @llvm.lifetime.end.p0(i64 4, ptr %8) #6
  call void @llvm.lifetime.end.p0(i64 4, ptr %7) #6
  call void @llvm.lifetime.end.p0(i64 8, ptr %6) #6
  %56 = load ptr, ptr %3, align 8
  ret ptr %56
}