; Function Attrs: nounwind uwtable
define internal ptr @get_datetime_fromdateandtime(ptr readnone captures(none) %0, ptr noundef %1) #0 {
  %3 = alloca i32, align 4
  %4 = alloca i32, align 4
  %5 = alloca i32, align 4
  %6 = alloca i32, align 4
  %7 = alloca i32, align 4
  %8 = alloca i32, align 4
  %9 = alloca i32, align 4
  %10 = alloca i32, align 4
  call void @llvm.lifetime.start.p0(i64 4, ptr nonnull %3) #4
  call void @llvm.lifetime.start.p0(i64 4, ptr nonnull %4) #4
  call void @llvm.lifetime.start.p0(i64 4, ptr nonnull %5) #4
  call void @llvm.lifetime.start.p0(i64 4, ptr nonnull %6) #4
  call void @llvm.lifetime.start.p0(i64 4, ptr nonnull %7) #4
  call void @llvm.lifetime.start.p0(i64 4, ptr nonnull %8) #4
  call void @llvm.lifetime.start.p0(i64 4, ptr nonnull %9) #4
  call void @llvm.lifetime.start.p0(i64 4, ptr nonnull %10) #4
  %11 = call i32 (ptr, ptr, ...) @PyArg_ParseTuple(ptr noundef %1, ptr noundef nonnull @.str.26, ptr noundef nonnull %3, ptr noundef nonnull %4, ptr noundef nonnull %5, ptr noundef nonnull %6, ptr noundef nonnull %7, ptr noundef nonnull %8, ptr noundef nonnull %9, ptr noundef nonnull %10) #4
  %.not = icmp eq i32 %11, 0
  br i1 %.not, label %26, label %12

12:                                               ; preds = %2
  %13 = load ptr, ptr @PyDateTimeAPI, align 8, !tbaa !24
  %14 = getelementptr inbounds nuw i8, ptr %13, i64 56
  %15 = load ptr, ptr %14, align 8, !tbaa !34
  %16 = load i32, ptr %4, align 4, !tbaa !22
  %17 = load i32, ptr %5, align 4, !tbaa !22
  %18 = load i32, ptr %6, align 4, !tbaa !22
  %19 = load i32, ptr %7, align 4, !tbaa !22
  %20 = load i32, ptr %8, align 4, !tbaa !22
  %21 = load i32, ptr %9, align 4, !tbaa !22
  %22 = load i32, ptr %10, align 4, !tbaa !22
  %23 = getelementptr inbounds nuw i8, ptr %13, i64 8
  %24 = load ptr, ptr %23, align 8, !tbaa !28
  %25 = call ptr %15(i32 noundef %16, i32 noundef %17, i32 noundef %18, i32 noundef %19, i32 noundef %20, i32 noundef %21, i32 noundef %22, ptr noundef nonnull @_Py_NoneStruct, ptr noundef %24) #4
  br label %26

26:                                               ; preds = %12, %2
  %.03 = phi ptr [ null, %2 ], [ %25, %12 ]
  call void @llvm.lifetime.end.p0(i64 4, ptr nonnull %10) #4
  call void @llvm.lifetime.end.p0(i64 4, ptr nonnull %9) #4
  call void @llvm.lifetime.end.p0(i64 4, ptr nonnull %8) #4
  call void @llvm.lifetime.end.p0(i64 4, ptr nonnull %7) #4
  call void @llvm.lifetime.end.p0(i64 4, ptr nonnull %6) #4
  call void @llvm.lifetime.end.p0(i64 4, ptr nonnull %5) #4
  call void @llvm.lifetime.end.p0(i64 4, ptr nonnull %4) #4
  call void @llvm.lifetime.end.p0(i64 4, ptr nonnull %3) #4
  ret ptr %.03
}